target datalayout = "e-m:e-p270:32:32-p271:32:32-p272:64:64-i64:64-i128:128-f80:128-n8:16:32:64-S128"
target triple = "x86_64-pc-linux-gnu"

%struct._ftype_t = type { i32, i32, ptr, ptr, ptr, ptr, ptr, ptr, ptr, ptr, ptr, ptr, ptr, ptr, ptr, %union.anon, %union.anon.0, ptr, ptr, ptr, ptr, ptr, ptr, ptr, ptr, ptr, ptr, ptr, ptr, ptr, ptr, ptr }
%union.anon = type { ptr }
%union.anon.0 = type { ptr }
%struct._fvalue_t = type { ptr, %union.anon.1 }
%union.anon.1 = type { %struct._protocol_value_t }
%struct._protocol_value_t = type { ptr, i32, ptr, i8 }

@type_list = hidden global [48 x ptr] zeroinitializer, align 16

; Function Attrs: null_pointer_is_valid sspstrong uwtable
define void @fvalue_cleanup(ptr noundef %0) #0 {
  %2 = alloca ptr, align 8
  store ptr %0, ptr %2, align 8
  %3 = load ptr, ptr %2, align 8
  %4 = getelementptr inbounds nuw %struct._fvalue_t, ptr %3, i32 0, i32 0
  %5 = load ptr, ptr %4, align 8
  %6 = getelementptr inbounds nuw %struct._ftype_t, ptr %5, i32 0, i32 4
  %7 = load ptr, ptr %6, align 8
  %8 = icmp ne ptr %7, null
  br i1 %8, label %10, label %9

9:                                                ; preds = %1
  br label %17

10:                                               ; preds = %1
  %11 = load ptr, ptr %2, align 8
  %12 = getelementptr inbounds nuw %struct._fvalue_t, ptr %11, i32 0, i32 0
  %13 = load ptr, ptr %12, align 8
  %14 = getelementptr inbounds nuw %struct._ftype_t, ptr %13, i32 0, i32 4
  %15 = load ptr, ptr %14, align 8
  %16 = load ptr, ptr %2, align 8
  call void %15(ptr noundef %16)
  br label %17

17:                                               ; preds = %10, %9
  ret void
}

; Function Attrs: null_pointer_is_valid sspstrong uwtable
define void @fvalue_free(ptr noundef %0) #0 {
  %2 = alloca ptr, align 8
  store ptr %0, ptr %2, align 8
  %3 = load ptr, ptr %2, align 8
  call void @fvalue_cleanup(ptr noundef %3)
  br label %4

4:                                                ; preds = %1
  %5 = load ptr, ptr %2, align 8
  call void @g_slice_free1(i64 noundef 40, ptr noundef %5)
  br label %6

6:                                                ; preds = %4
  ret void
}

; Function Attrs: null_pointer_is_valid sspstrong uwtable
define ptr @fvalue_new(i32 noundef %0) #0 {
  %2 = alloca i32, align 4
  %3 = alloca ptr, align 8
  %4 = alloca ptr, align 8
  %5 = alloca ptr, align 8
  store i32 %0, ptr %2, align 4
  call void @llvm.lifetime.start.p0(i64 8, ptr %3) #9
  call void @llvm.lifetime.start.p0(i64 8, ptr %4) #9
  call void @llvm.lifetime.start.p0(i64 8, ptr %5) #9
  %6 = call noalias ptr @g_slice_alloc(i64 noundef 40) #10
  store ptr %6, ptr %3, align 8
  br label %7

7:                                                ; preds = %1
  br label %8

8:                                                ; preds = %7
  br label %9

9:                                                ; preds = %8
  %10 = load i32, ptr %2, align 4
  %11 = zext i32 %10 to i64
  %12 = getelementptr [48 x ptr], ptr @type_list, i64 0, i64 %11
  %13 = load ptr, ptr %12, align 8
  store ptr %13, ptr %4, align 8
  %14 = load ptr, ptr %4, align 8
  %15 = load ptr, ptr %3, align 8
  %16 = getelementptr inbounds nuw %struct._fvalue_t, ptr %15, i32 0, i32 0
  store ptr %14, ptr %16, align 8
  %17 = load ptr, ptr %4, align 8
  %18 = getelementptr inbounds nuw %struct._ftype_t, ptr %17, i32 0, i32 2
  %19 = load ptr, ptr %18, align 8
  store ptr %19, ptr %5, align 8
  %20 = load ptr, ptr %5, align 8
  %21 = icmp ne ptr %20, null
  br i1 %21, label %22, label %25

22:                                               ; preds = %9
  %23 = load ptr, ptr %5, align 8
  %24 = load ptr, ptr %3, align 8
  call void %23(ptr noundef %24)
  br label %25

25:                                               ; preds = %22, %9
  %26 = load ptr, ptr %3, align 8
  call void @llvm.lifetime.end.p0(i64 8, ptr %5) #9
  call void @llvm.lifetime.end.p0(i64 8, ptr %4) #9
  call void @llvm.lifetime.end.p0(i64 8, ptr %3) #9
  ret ptr %26
}

; Function Attrs: null_pointer_is_valid sspstrong uwtable
define internal ptr @_fvalue_binop(ptr noundef %0, ptr noundef %1, ptr noundef %2, ptr noundef %3) #0 {
  %5 = alloca ptr, align 8
  %6 = alloca ptr, align 8
  %7 = alloca ptr, align 8
  %8 = alloca ptr, align 8
  %9 = alloca ptr, align 8
  %10 = alloca ptr, align 8
  %11 = alloca i32, align 4
  store ptr %0, ptr %6, align 8
  store ptr %1, ptr %7, align 8
  store ptr %2, ptr %8, align 8
  store ptr %3, ptr %9, align 8
  call void @llvm.lifetime.start.p0(i64 8, ptr %10) #9
  %12 = load ptr, ptr %7, align 8
  %13 = getelementptr inbounds nuw %struct._fvalue_t, ptr %12, i32 0, i32 0
  %14 = load ptr, ptr %13, align 8
  %15 = getelementptr inbounds nuw %struct._ftype_t, ptr %14, i32 0, i32 0
  %16 = load i32, ptr %15, align 8
  %17 = call ptr @fvalue_new(i32 noundef %16)
  store ptr %17, ptr %10, align 8
  %18 = load ptr, ptr %6, align 8
  %19 = load ptr, ptr %10, align 8
  %20 = load ptr, ptr %7, align 8
  %21 = load ptr, ptr %8, align 8
  %22 = load ptr, ptr %9, align 8
  %23 = call i32 %18(ptr noundef %19, ptr noundef %20, ptr noundef %21, ptr noundef %22)
  %24 = icmp ne i32 %23, 0
  br i1 %24, label %25, label %27

25:                                               ; preds = %4
  %26 = load ptr, ptr %10, align 8
  call void @fvalue_free(ptr noundef %26)
  store ptr null, ptr %5, align 8
  store i32 1, ptr %11, align 4
  br label %29

27:                                               ; preds = %4
  %28 = load ptr, ptr %10, align 8
  store ptr %28, ptr %5, align 8
  store i32 1, ptr %11, align 4
  br label %29

29:                                               ; preds = %27, %25
  call void @llvm.lifetime.end.p0(i64 8, ptr %10) #9
  %30 = load ptr, ptr %5, align 8
  ret ptr %30
}

; Function Attrs: null_pointer_is_valid sspstrong uwtable
define ptr @fvalue_subtract(ptr noundef %0, ptr noundef %1, ptr noundef %2) #0 {
  %4 = alloca ptr, align 8
  %5 = alloca ptr, align 8
  %6 = alloca ptr, align 8
  store ptr %0, ptr %4, align 8
  store ptr %1, ptr %5, align 8
  store ptr %2, ptr %6, align 8
  br label %7

7:                                                ; preds = %3
  br label %8

8:                                                ; preds = %7
  %9 = load ptr, ptr %4, align 8
  %10 = getelementptr inbounds nuw %struct._fvalue_t, ptr %9, i32 0, i32 0
  %11 = load ptr, ptr %10, align 8
  %12 = getelementptr inbounds nuw %struct._ftype_t, ptr %11, i32 0, i32 28
  %13 = load ptr, ptr %12, align 8
  %14 = load ptr, ptr %4, align 8
  %15 = load ptr, ptr %5, align 8
  %16 = load ptr, ptr %6, align 8
  %17 = call ptr @_fvalue_binop(ptr noundef %13, ptr noundef %14, ptr noundef %15, ptr noundef %16)
  ret ptr %17
}