; Function Attrs: null_pointer_is_valid sspstrong uwtable
define noundef ptr @fvalue_subtract(ptr noundef %0, ptr noundef %1, ptr noundef %2) local_unnamed_addr #0 {
  %4 = load ptr, ptr %0, align 8
  %5 = getelementptr inbounds nuw i8, ptr %4, i64 216
  %6 = load ptr, ptr %5, align 8
  %7 = load i32, ptr %4, align 8
  %8 = tail call noalias dereferenceable_or_null(40) ptr @g_slice_alloc(i64 noundef 40) #10
  %9 = zext i32 %7 to i64
  %10 = getelementptr [48 x ptr], ptr @type_list, i64 0, i64 %9
  %11 = load ptr, ptr %10, align 8
  store ptr %11, ptr %8, align 8
  %12 = getelementptr inbounds nuw i8, ptr %11, i64 8
  %13 = load ptr, ptr %12, align 8
  %.not.i.i = icmp eq ptr %13, null
  br i1 %.not.i.i, label %fvalue_new.exit.i, label %14

14:                                               ; preds = %3
  tail call void %13(ptr noundef %8)
  br label %fvalue_new.exit.i

fvalue_new.exit.i:                                ; preds = %14, %3
  %15 = tail call i32 %6(ptr noundef %8, ptr noundef %0, ptr noundef %1, ptr noundef %2)
  %.not.i = icmp eq i32 %15, 0
  br i1 %.not.i, label %_fvalue_binop.exit, label %16

16:                                               ; preds = %fvalue_new.exit.i
  %17 = load ptr, ptr %8, align 8
  %18 = getelementptr inbounds nuw i8, ptr %17, i64 24
  %19 = load ptr, ptr %18, align 8
  %.not.i.i.i = icmp eq ptr %19, null
  br i1 %.not.i.i.i, label %fvalue_free.exit.i, label %20

20:                                               ; preds = %16
  tail call void %19(ptr noundef %8)
  br label %fvalue_free.exit.i

fvalue_free.exit.i:                               ; preds = %20, %16
  tail call void @g_slice_free1(i64 noundef 40, ptr noundef %8)
  br label %_fvalue_binop.exit

_fvalue_binop.exit:                               ; preds = %fvalue_new.exit.i, %fvalue_free.exit.i
  %.0.i = phi ptr [ null, %fvalue_free.exit.i ], [ %8, %fvalue_new.exit.i ]
  ret ptr %.0.i
}